Certificate:
    Data:
        Version: 3 (0x2)
        Serial Number:
            0a:c5:c6:d6:4c:39:ca:49
        Signature Algorithm: sha256WithRSAEncryption
        Issuer: C=US, ST=North Carolina, O=meter.md llc, OU=meter.md llc Security, CN=meter.md Certificate Authority
        Validity
            Not Before: Jul 25 19:33:29 2016 GMT
            Not After : Jul 23 19:33:29 2026 GMT
        Subject: C=US, ST=North Carolina, O=meter.md llc, OU=meter.md llc Security, CN=redis-server/emailAddress=security@meter.md
        Subject Public Key Info:
            Public Key Algorithm: rsaEncryption
            RSA Public Key: (4096 bit)
                Modulus (4096 bit):
                    00:f3:74:bc:0d:58:97:04:ff:40:8b:f2:40:c5:06:
                    22:4d:4d:02:e0:95:06:d3:07:27:b0:eb:9a:3b:d5:
                    59:98:26:dd:73:ad:8e:8b:4e:0b:b8:b3:e7:db:d9:
                    55:18:75:16:17:2d:6c:71:43:b0:37:39:11:cd:ae:
                    67:df:0f:66:12:81:99:a0:3d:09:7c:ef:b9:29:9d:
                    f1:0b:98:dd:03:3a:11:3b:7b:a8:52:aa:66:fd:ed:
                    23:c7:74:dd:09:f8:55:19:b9:8a:9e:dd:b9:d4:ee:
                    f2:ea:a6:2a:54:ba:2b:ef:c8:4f:e8:0d:c6:cc:0d:
                    24:ac:64:cd:fe:65:38:c2:17:81:8a:21:d5:a9:02:
                    73:34:25:15:b2:af:5a:11:46:c1:45:3b:d0:9a:38:
                    4a:e9:97:b8:38:76:b5:cc:63:eb:77:5e:19:b2:de:
                    a2:4b:a6:8b:ca:1f:61:e9:21:a2:84:8d:d4:80:9e:
                    66:61:8e:bb:a4:4b:c3:40:1d:10:d8:f4:a1:e1:b6:
                    fa:af:69:88:f7:ee:7a:61:e9:60:5c:bb:b4:53:92:
                    23:02:80:95:27:6f:60:0e:7c:cb:9c:2f:aa:95:eb:
                    f2:c3:52:a7:55:88:aa:b4:2b:91:ba:8d:cc:fa:f6:
                    06:a2:3a:f8:6f:bd:28:ca:e0:f9:f5:ec:72:1c:f6:
                    24:75:f1:74:7d:20:3e:cd:f4:b4:18:ad:53:56:81:
                    78:9b:7a:64:85:8a:56:3c:a8:89:e7:00:6d:37:e0:
                    75:1c:67:42:5a:b8:cb:9c:08:6e:12:16:1d:85:8d:
                    27:c4:c6:77:cb:ee:f4:81:0b:b2:3c:6f:25:7e:f4:
                    c3:86:18:fd:b6:fc:3b:cb:46:5c:62:38:a7:a2:70:
                    fb:03:f9:cd:8b:dd:7a:a7:35:86:24:db:7b:3a:5c:
                    e7:de:d7:15:83:1d:94:8b:72:76:eb:4f:c8:7e:fc:
                    2b:93:d6:d9:b0:1a:7a:20:e2:08:fd:18:99:83:bb:
                    b1:5c:a5:a2:73:31:47:16:b4:e4:b1:cd:3a:19:d8:
                    4a:c5:44:cf:ce:fc:47:0b:70:c8:68:04:e1:00:27:
                    d7:ad:a2:af:1d:cf:3d:57:fb:0e:86:34:30:9c:4e:
                    92:a5:00:2e:d5:d9:bf:25:fa:c3:9b:80:c0:e9:1c:
                    ca:fc:31:a9:0f:26:83:4d:3a:4b:8c:70:b2:ac:83:
                    fb:8d:c1:16:92:af:b4:fc:8a:88:0b:6a:8c:94:27:
                    fe:af:1b:6c:a6:f1:b7:b3:3f:c5:9d:87:d3:40:cd:
                    35:d8:50:38:e7:85:fd:83:d4:bf:20:1b:c4:b0:18:
                    98:95:f2:6f:0f:a7:ea:db:f6:4b:42:6b:a6:98:a7:
                    bb:3c:93
                Exponent: 65537 (0x10001)
        X509v3 extensions:
            X509v3 Basic Constraints: 
                CA:FALSE
            X509v3 Subject Key Identifier: 
                6C:36:87:5E:1D:CB:CC:08:37:B1:4F:43:DE:5A:9C:F0:FD:CE:C0:EC
            X509v3 Authority Key Identifier: 
                keyid:45:65:90:08:50:69:15:ED:2B:60:9E:76:51:86:51:AC:1E:7D:0C:FB

            X509v3 Subject Alternative Name: 
                email:security@meter.md
            X509v3 CRL Distribution Points: 
                URI:https://security.meter.md/ca.crl

    Signature Algorithm: sha256WithRSAEncryption
        de:44:c3:f4:22:ef:61:d5:e2:05:46:1b:62:1a:cb:be:50:24:
        c3:a7:31:3b:e5:8d:55:97:47:4b:9e:dc:04:41:15:0d:84:a8:
        f3:02:4a:89:30:a7:6f:ab:20:bb:3a:01:4e:c7:25:29:18:47:
        0a:8a:e5:ec:60:fc:3f:6e:cc:82:1e:c6:b3:94:1e:c1:3d:ab:
        eb:0f:db:a5:84:48:e7:22:aa:9d:af:29:35:51:6e:52:ed:ea:
        a6:bf:b8:c0:58:08:1d:48:98:1d:8f:c6:cd:4d:0b:86:90:84:
        e7:75:1e:1a:1a:30:3a:69:ed:22:ff:60:97:16:db:8d:f6:27:
        06:ea:41:ee:6f:77:94:0a:a6:36:82:f8:cb:47:8c:8b:bf:26:
        14:e2:21:e7:df:70:4d:e2:ac:c6:a5:8e:89:1b:cb:28:2f:c0:
        99:c3:7d:50:99:2e:90:c8:69:c0:29:de:ad:e5:93:32:9b:d3:
        b1:5b:d1:50:8c:f9:fc:1d:db:02:6b:38:36:cf:02:06:f4:af:
        01:2f:98:a6:2c:79:d9:cd:89:62:0b:94:7f:bb:57:c0:36:9c:
        8c:dc:12:c1:e0:64:0b:20:f5:97:af:09:33:dc:81:6d:bc:07:
        36:e6:a3:3d:a2:67:d6:33:ab:c1:f6:50:6a:b8:fb:92:30:b3:
        b5:9b:39:fa
-----BEGIN CERTIFICATE-----
MIIFQDCCBCigAwIBAgIICsXG1kw5ykkwDQYJKoZIhvcNAQELBQAwgYYxCzAJBgNV
BAYTAlVTMRcwFQYDVQQIEw5Ob3J0aCBDYXJvbGluYTEVMBMGA1UEChMMbWV0ZXIu
bWQgbGxjMR4wHAYDVQQLExVtZXRlci5tZCBsbGMgU2VjdXJpdHkxJzAlBgNVBAMT
Hm1ldGVyLm1kIENlcnRpZmljYXRlIEF1dGhvcml0eTAeFw0xNjA3MjUxOTMzMjla
Fw0yNjA3MjMxOTMzMjlaMIGWMQswCQYDVQQGEwJVUzEXMBUGA1UECBMOTm9ydGgg
Q2Fyb2xpbmExFTATBgNVBAoTDG1ldGVyLm1kIGxsYzEeMBwGA1UECxMVbWV0ZXIu
bWQgbGxjIFNlY3VyaXR5MRUwEwYDVQQDEwxyZWRpcy1zZXJ2ZXIxIDAeBgkqhkiG
9w0BCQEWEXNlY3VyaXR5QG1ldGVyLm1kMIICIjANBgkqhkiG9w0BAQEFAAOCAg8A
MIICCgKCAgEA83S8DViXBP9Ai/JAxQYiTU0C4JUG0wcnsOuaO9VZmCbdc62Oi04L
uLPn29lVGHUWFy1scUOwNzkRza5n3w9mEoGZoD0JfO+5KZ3xC5jdAzoRO3uoUqpm
/e0jx3TdCfhVGbmKnt251O7y6qYqVLor78hP6A3GzA0krGTN/mU4wheBiiHVqQJz
NCUVsq9aEUbBRTvQmjhK6Ze4OHa1zGPrd14Zst6iS6aLyh9h6SGihI3UgJ5mYY67
pEvDQB0Q2PSh4bb6r2mI9+56YelgXLu0U5IjAoCVJ29gDnzLnC+qlevyw1KnVYiq
tCuRuo3M+vYGojr4b70oyuD59exyHPYkdfF0fSA+zfS0GK1TVoF4m3pkhYpWPKiJ
5wBtN+B1HGdCWrjLnAhuEhYdhY0nxMZ3y+70gQuyPG8lfvTDhhj9tvw7y0ZcYjin
onD7A/nNi916pzWGJNt7Olzn3tcVgx2Ui3J260/Ifvwrk9bZsBp6IOII/RiZg7ux
XKWiczFHFrTksc06GdhKxUTPzvxHC3DIaAThACfXraKvHc89V/sOhjQwnE6SpQAu
1dm/JfrDm4DA6RzK/DGpDyaDTTpLjHCyrIP7jcEWkq+0/IqIC2qMlCf+rxtspvG3
sz/FnYfTQM012FA454X9g9S/IBvEsBiYlfJvD6fq2/ZLQmummKe7PJMCAwEAAaOB
nzCBnDAJBgNVHRMEAjAAMB0GA1UdDgQWBBRsNodeHcvMCDexT0PeWpzw/c7A7DAf
BgNVHSMEGDAWgBRFZZAIUGkV7StgnnZRhlGsHn0M+zAcBgNVHREEFTATgRFzZWN1
cml0eUBtZXRlci5tZDAxBgNVHR8EKjAoMCagJKAihiBodHRwczovL3NlY3VyaXR5
Lm1ldGVyLm1kL2NhLmNybDANBgkqhkiG9w0BAQsFAAOCAQEA3kTD9CLvYdXiBUYb
YhrLvlAkw6cxO+WNVZdHS57cBEEVDYSo8wJKiTCnb6sguzoBTsclKRhHCorl7GD8
P27Mgh7Gs5QewT2r6w/bpYRI5yKqna8pNVFuUu3qpr+4wFgIHUiYHY/GzU0LhpCE
53UeGhowOmntIv9glxbbjfYnBupB7m93lAqmNoL4y0eMi78mFOIh599wTeKsxqWO
iRvLKC/AmcN9UJkukMhpwCnereWTMpvTsVvRUIz5/B3bAms4Ns8CBvSvAS+Ypix5
2c2JYguUf7tXwDacjNwSweBkCyD1l68JM9yBbbwHNuajPaJn1jOrwfZQarj7kjCz
tZs5+g==
-----END CERTIFICATE-----
