Certificate:
    Data:
        Version: 3 (0x2)
        Serial Number:
            0a:c5:c6:d6:4c:39:ca:46
        Signature Algorithm: sha256WithRSAEncryption
        Issuer: C=US, ST=North Carolina, O=meter.md llc, OU=meter.md llc Security, CN=meter.md Certificate Authority
        Validity
            Not Before: Jul 25 15:14:17 2016 GMT
            Not After : Jul 23 15:14:17 2026 GMT
        Subject: C=US, ST=North Carolina, O=meter.md llc, OU=meter.md llc Security, CN=postgres-server/emailAddress=security@meter.md
        Subject Public Key Info:
            Public Key Algorithm: rsaEncryption
            RSA Public Key: (4096 bit)
                Modulus (4096 bit):
                    00:b5:2d:58:bc:05:4a:ac:2d:d3:80:21:15:67:88:
                    ce:92:4e:eb:58:77:42:12:e2:4d:91:7f:32:6a:5c:
                    4c:e5:fd:49:0f:02:87:36:15:e2:39:fe:9a:3a:66:
                    e0:d4:44:63:2d:a5:ac:b6:2e:0a:e0:cf:e3:2f:f0:
                    4a:74:6f:75:12:f7:d5:83:39:1d:c7:e0:bf:c9:63:
                    9b:72:71:80:e2:12:46:1c:11:76:45:4c:f9:6c:08:
                    ba:f6:69:0e:90:dd:1c:58:bf:5d:2c:c5:46:81:f4:
                    89:ce:c5:a1:33:7f:f3:26:da:53:4e:54:73:d7:cf:
                    b7:3a:07:39:ba:72:fe:2f:fa:66:a6:7d:07:8c:9e:
                    33:ec:5e:2f:af:b4:67:86:4a:94:fc:c8:f6:3a:fb:
                    29:ae:f9:8f:4f:75:23:af:66:67:f1:b7:b9:1a:b9:
                    fd:0e:3a:21:dd:65:c7:2b:35:e3:4c:34:69:2a:44:
                    67:ef:42:b4:ee:c7:34:1c:ba:0a:83:e5:ac:fb:13:
                    61:a4:1a:a4:c4:ce:d0:d3:fa:6c:c8:1f:87:5d:d2:
                    ae:42:7a:67:13:61:fd:27:ec:db:2c:b6:10:79:d4:
                    47:16:90:ac:93:2d:08:61:ed:fc:21:2e:a7:f4:3c:
                    38:fa:cf:53:b1:70:fd:1e:23:da:d9:4c:15:0e:1e:
                    5a:15:88:8d:04:52:eb:f4:64:53:bb:4a:0b:12:ac:
                    b2:cd:94:c8:f2:75:b0:22:d3:78:b6:d4:a3:a9:55:
                    0d:86:f2:a2:b0:13:ab:c4:40:e2:43:0a:14:6b:76:
                    ac:f7:fd:77:a6:3d:88:47:e6:0a:bc:7d:84:d9:d1:
                    ed:81:3e:af:db:cd:19:4a:df:48:69:34:16:6a:a2:
                    69:33:a5:c4:e3:3f:6d:9f:0a:f0:60:a1:cd:b6:4c:
                    2b:27:a1:7d:f0:c3:cd:9a:2e:ea:00:7b:1d:d0:7e:
                    13:3a:e4:8e:cb:3b:a8:7c:c2:95:90:ca:55:0d:59:
                    09:8a:b2:59:81:5b:c5:c8:22:8a:8d:8a:41:ca:57:
                    9c:20:53:a1:f4:9e:ae:6a:19:4d:f7:37:ee:4a:69:
                    2f:5b:e9:ec:33:ae:c5:98:1e:c8:c5:8f:57:03:ba:
                    12:30:28:6d:6c:2e:ae:98:1b:a7:d1:05:ed:42:7d:
                    17:7c:e6:8e:6c:b0:ef:a1:aa:81:34:f7:2c:c1:79:
                    54:4a:6f:95:71:e3:cd:68:1a:5a:27:62:78:04:a0:
                    3d:b9:00:44:60:8a:f2:3d:bc:9f:45:a2:50:5d:dd:
                    bb:e8:27:a0:dc:8c:ca:8a:68:e8:bb:20:2c:f0:0e:
                    d7:7a:d9:ad:b1:30:ff:62:ba:15:54:48:7d:97:50:
                    63:1b:4f
                Exponent: 65537 (0x10001)
        X509v3 extensions:
            X509v3 Basic Constraints: 
                CA:FALSE
            Netscape Cert Type: 
                SSL Client, S/MIME, Object Signing
            X509v3 Subject Key Identifier: 
                E1:7D:5D:F9:C4:25:4D:B3:8D:B0:F3:D0:7C:64:4A:2D:64:EE:08:D7
            X509v3 Authority Key Identifier: 
                keyid:45:65:90:08:50:69:15:ED:2B:60:9E:76:51:86:51:AC:1E:7D:0C:FB

            X509v3 Subject Alternative Name: 
                email:security@meter.md
            X509v3 CRL Distribution Points: 
                URI:https://security.meter.md/ca.crl

    Signature Algorithm: sha256WithRSAEncryption
        60:0b:41:e8:6f:08:cd:fa:ea:0b:6e:b3:c0:94:24:12:b3:20:
        09:5b:49:4c:12:33:10:0e:6d:7a:d1:09:eb:53:be:54:2d:7d:
        63:7c:e4:fe:b0:6f:69:a6:f8:9c:51:4e:22:7c:ef:4f:84:b8:
        44:a7:9d:df:9c:a4:0b:3a:0f:a7:f3:79:48:38:5b:70:4a:f7:
        b3:b7:15:b3:68:cc:4a:88:43:3c:63:a6:f7:82:06:6f:ef:ac:
        c5:9f:4e:bf:01:44:b4:c5:d7:6a:c0:7d:6a:1b:c4:d3:47:d9:
        be:26:14:48:10:dd:66:c9:16:36:11:0b:30:86:26:33:74:89:
        02:dd:93:7d:19:c2:c5:82:04:38:db:aa:e3:42:bf:03:07:93:
        9e:fa:1e:21:91:20:08:e1:ab:dc:17:1e:1d:b6:8c:0c:98:4f:
        90:d2:64:bb:24:c4:7a:45:b7:e4:8d:75:8f:4c:fb:d2:8e:f1:
        05:8a:4c:ae:5d:9b:62:90:f2:d1:3d:ae:b3:2d:df:ba:b0:fe:
        24:0f:b1:67:4f:07:dc:9e:14:f7:cf:41:85:ec:64:f1:5e:c1:
        07:3f:bb:b0:22:9e:e2:1d:96:61:ca:3e:54:b7:7c:63:15:da:
        3c:b7:10:0e:8d:1a:87:a4:0e:8f:9a:4a:55:fa:60:7e:82:e8:
        76:0e:e0:e2
-----BEGIN CERTIFICATE-----
MIIFVjCCBD6gAwIBAgIICsXG1kw5ykYwDQYJKoZIhvcNAQELBQAwgYYxCzAJBgNV
BAYTAlVTMRcwFQYDVQQIEw5Ob3J0aCBDYXJvbGluYTEVMBMGA1UEChMMbWV0ZXIu
bWQgbGxjMR4wHAYDVQQLExVtZXRlci5tZCBsbGMgU2VjdXJpdHkxJzAlBgNVBAMT
Hm1ldGVyLm1kIENlcnRpZmljYXRlIEF1dGhvcml0eTAeFw0xNjA3MjUxNTE0MTda
Fw0yNjA3MjMxNTE0MTdaMIGZMQswCQYDVQQGEwJVUzEXMBUGA1UECBMOTm9ydGgg
Q2Fyb2xpbmExFTATBgNVBAoTDG1ldGVyLm1kIGxsYzEeMBwGA1UECxMVbWV0ZXIu
bWQgbGxjIFNlY3VyaXR5MRgwFgYDVQQDEw9wb3N0Z3Jlcy1zZXJ2ZXIxIDAeBgkq
hkiG9w0BCQEWEXNlY3VyaXR5QG1ldGVyLm1kMIICIjANBgkqhkiG9w0BAQEFAAOC
Ag8AMIICCgKCAgEAtS1YvAVKrC3TgCEVZ4jOkk7rWHdCEuJNkX8yalxM5f1JDwKH
NhXiOf6aOmbg1ERjLaWsti4K4M/jL/BKdG91EvfVgzkdx+C/yWObcnGA4hJGHBF2
RUz5bAi69mkOkN0cWL9dLMVGgfSJzsWhM3/zJtpTTlRz18+3Ogc5unL+L/pmpn0H
jJ4z7F4vr7RnhkqU/Mj2OvsprvmPT3Ujr2Zn8be5Grn9Djoh3WXHKzXjTDRpKkRn
70K07sc0HLoKg+Ws+xNhpBqkxM7Q0/psyB+HXdKuQnpnE2H9J+zbLLYQedRHFpCs
ky0IYe38IS6n9Dw4+s9TsXD9HiPa2UwVDh5aFYiNBFLr9GRTu0oLEqyyzZTI8nWw
ItN4ttSjqVUNhvKisBOrxEDiQwoUa3as9/13pj2IR+YKvH2E2dHtgT6v280ZSt9I
aTQWaqJpM6XE4z9tnwrwYKHNtkwrJ6F98MPNmi7qAHsd0H4TOuSOyzuofMKVkMpV
DVkJirJZgVvFyCKKjYpBylecIFOh9J6uahlN9zfuSmkvW+nsM67FmB7IxY9XA7oS
MChtbC6umBun0QXtQn0XfOaObLDvoaqBNPcswXlUSm+VcePNaBpaJ2J4BKA9uQBE
YIryPbyfRaJQXd276Ceg3IzKimjouyAs8A7XetmtsTD/YroVVEh9l1BjG08CAwEA
AaOBsjCBrzAJBgNVHRMEAjAAMBEGCWCGSAGG+EIBAQQEAwIEsDAdBgNVHQ4EFgQU
4X1d+cQlTbONsPPQfGRKLWTuCNcwHwYDVR0jBBgwFoAURWWQCFBpFe0rYJ52UYZR
rB59DPswHAYDVR0RBBUwE4ERc2VjdXJpdHlAbWV0ZXIubWQwMQYDVR0fBCowKDAm
oCSgIoYgaHR0cHM6Ly9zZWN1cml0eS5tZXRlci5tZC9jYS5jcmwwDQYJKoZIhvcN
AQELBQADggEBAGALQehvCM366gtus8CUJBKzIAlbSUwSMxAObXrRCetTvlQtfWN8
5P6wb2mm+JxRTiJ870+EuESnnd+cpAs6D6fzeUg4W3BK97O3FbNozEqIQzxjpveC
Bm/vrMWfTr8BRLTF12rAfWobxNNH2b4mFEgQ3WbJFjYRCzCGJjN0iQLdk30ZwsWC
BDjbquNCvwMHk576HiGRIAjhq9wXHh22jAyYT5DSZLskxHpFt+SNdY9M+9KO8QWK
TK5dm2KQ8tE9rrMt37qw/iQPsWdPB9yeFPfPQYXsZPFewQc/u7AinuIdlmHKPlS3
fGMV2jy3EA6NGoekDo+aSlX6YH6C6HYO4OI=
-----END CERTIFICATE-----
