Certificate:
    Data:
        Version: 3 (0x2)
        Serial Number:
            0a:c5:c6:d6:4c:39:ca:45
        Signature Algorithm: sha256WithRSAEncryption
        Issuer: C=US, ST=North Carolina, O=meter.md llc, OU=meter.md llc Security, CN=meter.md Certificate Authority
        Validity
            Not Before: Jul 25 15:14:02 2016 GMT
            Not After : Jul 23 15:14:02 2026 GMT
        Subject: C=US, ST=North Carolina, O=meter.md llc, OU=meter.md llc Security, CN=postgres-client/emailAddress=security@meter.md
        Subject Public Key Info:
            Public Key Algorithm: rsaEncryption
            RSA Public Key: (4096 bit)
                Modulus (4096 bit):
                    00:d3:a1:1f:89:26:b8:e7:c9:42:b3:3e:85:01:59:
                    b8:2a:c2:59:8a:b4:9c:58:8a:dc:15:86:9c:cc:8f:
                    0e:26:33:df:68:08:a6:52:7c:36:fc:5f:c2:3c:5b:
                    ed:2e:5c:c9:2e:f1:db:d6:c2:b7:da:5f:76:bb:59:
                    c5:06:78:ed:f4:ac:67:34:bf:fe:74:f9:6d:83:04:
                    c1:89:73:86:48:4a:0b:f1:f9:af:5f:1f:b7:2d:e7:
                    ad:7b:04:a3:af:28:a8:d9:41:6b:80:25:1a:14:db:
                    46:f4:96:ab:24:85:ea:25:1b:46:6e:5e:2c:95:2e:
                    00:56:6b:48:d1:e5:e3:69:2c:0c:93:e6:48:8e:b5:
                    92:08:b7:e0:01:84:18:c8:7b:77:e3:76:f4:ee:6d:
                    6c:e0:ea:8a:92:83:e2:6c:41:e4:02:68:3b:54:80:
                    48:97:f2:31:94:a6:96:dc:bd:92:83:1a:f6:9c:d2:
                    93:b4:54:12:ff:62:c9:68:ce:03:55:1a:8f:af:5b:
                    df:74:34:7a:bf:6e:b6:95:96:70:9a:1f:22:dc:66:
                    9c:79:9d:c0:e3:14:93:82:38:5b:1d:a5:33:6f:d5:
                    2d:56:2f:4e:a3:cd:2b:3f:a8:48:5c:0f:40:f2:1f:
                    e9:84:40:c4:54:99:f6:bf:1e:4f:70:cc:d3:3f:a1:
                    42:4e:0a:9a:76:09:be:64:41:f6:c5:60:a0:4d:7e:
                    9e:9f:94:d7:b8:41:60:82:04:f3:b4:02:5d:0a:4a:
                    9e:8a:fc:55:66:18:b7:43:8b:38:8a:f5:5a:32:66:
                    49:40:3d:d3:0a:12:f8:d8:5e:f3:1e:e3:c0:f0:36:
                    da:17:84:9d:d5:92:de:06:fa:e6:49:54:c1:f0:e7:
                    66:31:f9:c0:50:04:1d:0e:a7:ec:38:d7:37:3a:62:
                    86:3e:ec:7b:49:f2:ac:b5:98:88:a2:6c:43:61:32:
                    2c:95:ae:65:93:15:b5:43:e5:81:2c:c7:52:26:4c:
                    3e:f6:f1:42:ec:2c:d1:3e:83:43:37:61:eb:99:e2:
                    26:6b:55:95:77:72:ae:79:9e:00:e4:62:8c:d9:19:
                    ca:42:08:6f:68:c5:44:cc:47:36:9a:e6:44:24:d1:
                    84:51:dc:95:ce:f2:97:9f:27:68:b0:5e:4f:16:ba:
                    a6:f4:6d:a2:cf:05:d4:eb:ca:77:c2:36:2f:b2:93:
                    d2:22:58:82:7f:15:dd:b0:fc:da:92:09:b8:e2:da:
                    01:49:3b:cd:9c:53:0c:4b:53:64:09:80:b2:a6:1d:
                    2a:95:38:70:97:99:b3:a8:9e:c9:a8:dd:bd:31:9e:
                    83:5c:0d:e3:e0:36:58:12:cf:12:6c:18:d5:35:66:
                    dc:80:ab
                Exponent: 65537 (0x10001)
        X509v3 extensions:
            X509v3 Basic Constraints: 
                CA:FALSE
            Netscape Cert Type: 
                SSL Client, S/MIME, Object Signing
            X509v3 Subject Key Identifier: 
                7C:2E:CF:1B:C6:88:C5:D3:73:2A:7D:F4:30:D0:DC:9F:3E:96:5F:5B
            X509v3 Authority Key Identifier: 
                keyid:45:65:90:08:50:69:15:ED:2B:60:9E:76:51:86:51:AC:1E:7D:0C:FB

            X509v3 Subject Alternative Name: 
                email:security@meter.md
            X509v3 CRL Distribution Points: 
                URI:https://security.meter.md/ca.crl

    Signature Algorithm: sha256WithRSAEncryption
        10:c6:8c:48:57:f8:d6:42:89:c2:05:e9:79:78:cb:a4:3f:2c:
        2d:06:d5:df:a8:45:f2:07:c9:19:72:02:df:0c:dd:5e:36:ed:
        ec:08:5e:c8:a8:1d:09:19:d3:42:be:bc:4a:18:69:7f:53:5c:
        02:6c:11:e9:73:18:e3:cf:cc:2b:c4:a6:2b:18:ba:61:fd:54:
        b4:17:3f:d0:46:7d:24:56:24:ea:fa:ac:78:70:d1:dc:6c:cc:
        ea:ca:06:9d:d5:9c:dd:3a:64:9a:fc:24:e2:94:f1:07:69:30:
        1b:c6:af:98:ac:88:5b:5a:be:c1:cf:34:49:4a:ef:df:97:dd:
        86:d8:66:f5:b6:96:90:ed:bc:3e:eb:9c:5b:23:e2:6e:ab:aa:
        45:52:77:1d:e7:44:34:4b:27:a5:f7:37:b3:59:63:8c:03:cd:
        82:31:cc:37:10:94:1e:10:a4:7b:25:eb:13:5e:57:c4:dd:30:
        21:d6:7c:45:61:d8:76:e4:cc:7d:68:ef:8b:d8:7d:ce:a8:52:
        e3:24:33:33:2e:77:e1:87:7a:93:be:eb:8d:7a:3d:4c:83:62:
        63:46:c8:43:a0:4a:3a:3b:8c:9b:fd:90:d3:f1:fe:d5:10:3b:
        19:19:f0:41:35:09:49:20:90:a4:66:bd:55:66:a4:5a:18:1e:
        95:3f:97:5b
-----BEGIN CERTIFICATE-----
MIIFVjCCBD6gAwIBAgIICsXG1kw5ykUwDQYJKoZIhvcNAQELBQAwgYYxCzAJBgNV
BAYTAlVTMRcwFQYDVQQIEw5Ob3J0aCBDYXJvbGluYTEVMBMGA1UEChMMbWV0ZXIu
bWQgbGxjMR4wHAYDVQQLExVtZXRlci5tZCBsbGMgU2VjdXJpdHkxJzAlBgNVBAMT
Hm1ldGVyLm1kIENlcnRpZmljYXRlIEF1dGhvcml0eTAeFw0xNjA3MjUxNTE0MDJa
Fw0yNjA3MjMxNTE0MDJaMIGZMQswCQYDVQQGEwJVUzEXMBUGA1UECBMOTm9ydGgg
Q2Fyb2xpbmExFTATBgNVBAoTDG1ldGVyLm1kIGxsYzEeMBwGA1UECxMVbWV0ZXIu
bWQgbGxjIFNlY3VyaXR5MRgwFgYDVQQDEw9wb3N0Z3Jlcy1jbGllbnQxIDAeBgkq
hkiG9w0BCQEWEXNlY3VyaXR5QG1ldGVyLm1kMIICIjANBgkqhkiG9w0BAQEFAAOC
Ag8AMIICCgKCAgEA06EfiSa458lCsz6FAVm4KsJZirScWIrcFYaczI8OJjPfaAim
Unw2/F/CPFvtLlzJLvHb1sK32l92u1nFBnjt9KxnNL/+dPltgwTBiXOGSEoL8fmv
Xx+3LeetewSjryio2UFrgCUaFNtG9JarJIXqJRtGbl4slS4AVmtI0eXjaSwMk+ZI
jrWSCLfgAYQYyHt343b07m1s4OqKkoPibEHkAmg7VIBIl/IxlKaW3L2Sgxr2nNKT
tFQS/2LJaM4DVRqPr1vfdDR6v262lZZwmh8i3GaceZ3A4xSTgjhbHaUzb9UtVi9O
o80rP6hIXA9A8h/phEDEVJn2vx5PcMzTP6FCTgqadgm+ZEH2xWCgTX6en5TXuEFg
ggTztAJdCkqeivxVZhi3Q4s4ivVaMmZJQD3TChL42F7zHuPA8DbaF4Sd1ZLeBvrm
SVTB8OdmMfnAUAQdDqfsONc3OmKGPux7SfKstZiIomxDYTIsla5lkxW1Q+WBLMdS
Jkw+9vFC7CzRPoNDN2HrmeIma1WVd3KueZ4A5GKM2RnKQghvaMVEzEc2muZEJNGE
UdyVzvKXnydosF5PFrqm9G2izwXU68p3wjYvspPSIliCfxXdsPzakgm44toBSTvN
nFMMS1NkCYCyph0qlThwl5mzqJ7JqN29MZ6DXA3j4DZYEs8SbBjVNWbcgKsCAwEA
AaOBsjCBrzAJBgNVHRMEAjAAMBEGCWCGSAGG+EIBAQQEAwIEsDAdBgNVHQ4EFgQU
fC7PG8aIxdNzKn30MNDcnz6WX1swHwYDVR0jBBgwFoAURWWQCFBpFe0rYJ52UYZR
rB59DPswHAYDVR0RBBUwE4ERc2VjdXJpdHlAbWV0ZXIubWQwMQYDVR0fBCowKDAm
oCSgIoYgaHR0cHM6Ly9zZWN1cml0eS5tZXRlci5tZC9jYS5jcmwwDQYJKoZIhvcN
AQELBQADggEBABDGjEhX+NZCicIF6Xl4y6Q/LC0G1d+oRfIHyRlyAt8M3V427ewI
XsioHQkZ00K+vEoYaX9TXAJsEelzGOPPzCvEpisYumH9VLQXP9BGfSRWJOr6rHhw
0dxszOrKBp3VnN06ZJr8JOKU8QdpMBvGr5isiFtavsHPNElK79+X3YbYZvW2lpDt
vD7rnFsj4m6rqkVSdx3nRDRLJ6X3N7NZY4wDzYIxzDcQlB4QpHsl6xNeV8TdMCHW
fEVh2HbkzH1o74vYfc6oUuMkMzMud+GHepO+6416PUyDYmNGyEOgSjo7jJv9kNPx
/tUQOxkZ8EE1CUkgkKRmvVVmpFoYHpU/l1s=
-----END CERTIFICATE-----
