Certificate:
    Data:
        Version: 3 (0x2)
        Serial Number:
            0a:c5:c6:d6:4c:39:ca:4c
        Signature Algorithm: sha256WithRSAEncryption
        Issuer: C=US, ST=North Carolina, O=meter.md llc, OU=meter.md llc Security, CN=meter.md Certificate Authority
        Validity
            Not Before: Aug 11 14:00:34 2016 GMT
            Not After : Aug  9 14:00:34 2026 GMT
        Subject: C=US, ST=North Carolina, O=meter.md llc, OU=meter.md llc Security, CN=postgres-server/emailAddress=security@meter.md
        Subject Public Key Info:
            Public Key Algorithm: rsaEncryption
            RSA Public Key: (4096 bit)
                Modulus (4096 bit):
                    00:e4:79:10:6a:a4:4b:39:12:78:ca:52:40:ff:80:
                    38:5a:4b:2c:4e:be:3a:4f:14:f5:9c:d3:00:59:6b:
                    50:86:fb:ee:fd:73:fb:e1:db:7a:50:a4:02:f4:01:
                    b1:46:62:e2:67:dc:36:10:e0:d1:60:9d:01:70:64:
                    44:64:07:07:7d:f8:8d:f6:da:24:49:94:2f:34:20:
                    ee:01:f2:fa:dd:be:90:bb:75:99:67:60:10:08:44:
                    a3:97:d0:05:10:c9:7d:b1:07:60:57:06:cc:0e:0e:
                    5a:c5:da:dd:5b:f5:01:ef:7a:ad:d8:e5:5f:fe:ae:
                    8f:5b:60:71:d3:77:89:b5:7a:bd:b7:33:9b:a3:e0:
                    16:bb:ee:c0:a7:06:ba:ea:b4:d5:cf:9c:b9:53:1c:
                    a9:3e:07:ce:c8:9a:59:c7:8a:46:8a:c2:2a:e8:d8:
                    29:d0:32:a7:1e:60:52:d3:36:95:95:ee:80:59:ac:
                    f5:35:65:39:91:d5:52:72:c5:28:2b:b5:7d:7e:2a:
                    45:b0:00:92:5c:9f:e4:48:33:e2:4b:d7:79:9a:2e:
                    0f:db:73:bb:f0:83:3f:99:a4:48:d5:6b:d6:27:96:
                    4e:03:fa:0b:30:95:22:67:f5:ce:3a:0f:9e:9f:0f:
                    fe:bd:13:2c:07:a9:b8:32:87:8b:7f:62:e7:80:f5:
                    58:2a:ba:a1:4d:d5:69:26:5d:38:e2:3b:8b:d1:f0:
                    4c:04:8b:ea:d7:f4:1f:ed:0c:9d:fe:19:19:0c:e8:
                    87:10:86:ac:c6:1d:2b:bd:f4:52:5f:6a:db:aa:ab:
                    79:50:49:c3:bf:79:98:6b:82:ac:fb:a0:3b:b8:01:
                    9a:a5:e9:92:03:1f:cb:10:9a:28:4f:d6:52:55:76:
                    65:62:db:df:94:13:74:d1:8e:2f:88:7f:d3:c1:57:
                    8b:4b:96:2d:64:03:45:d6:62:7f:6e:ae:e9:15:1b:
                    ac:71:d5:43:68:17:10:48:54:7d:e3:bb:e2:f2:5f:
                    09:e2:7a:d5:62:cd:2a:a0:de:d6:12:1b:31:31:64:
                    97:5e:94:5e:48:19:5b:65:04:01:a4:07:03:9e:56:
                    38:e7:1d:fa:72:d6:21:83:f5:ed:77:a3:e3:ce:81:
                    e4:d3:cb:c9:f0:3b:90:a6:9e:10:e1:ac:d3:d7:06:
                    78:1a:d6:f1:76:10:f3:ee:2f:7d:49:90:d1:33:31:
                    45:7b:c5:e7:55:d5:ce:c3:49:1e:4d:56:eb:33:97:
                    e0:a7:0b:ab:20:44:20:93:70:8c:e5:9b:34:49:91:
                    6c:44:6d:f6:af:3a:e2:13:4b:99:ad:b6:f3:cd:c7:
                    fb:65:6e:e4:a6:87:01:d3:29:b0:14:97:10:32:53:
                    9e:40:d3
                Exponent: 65537 (0x10001)
        X509v3 extensions:
            X509v3 Basic Constraints: 
                CA:FALSE
            X509v3 Subject Key Identifier: 
                4C:24:69:A9:DF:3B:E2:17:9F:B3:53:0E:F4:22:1E:80:45:48:AA:D1
            X509v3 Authority Key Identifier: 
                keyid:45:65:90:08:50:69:15:ED:2B:60:9E:76:51:86:51:AC:1E:7D:0C:FB

            X509v3 Subject Alternative Name: 
                email:security@meter.md
            X509v3 CRL Distribution Points: 
                URI:https://security.meter.md/ca.crl

    Signature Algorithm: sha256WithRSAEncryption
        68:29:d2:23:ef:4c:41:72:c1:81:b5:1a:0f:1e:ed:5d:03:ff:
        f1:10:4e:24:af:11:74:a4:fd:85:dd:e0:01:6e:47:d1:0e:6a:
        ae:c2:da:83:78:78:db:1d:15:85:81:f3:9b:1f:9b:79:28:60:
        7c:43:c5:a3:39:5b:73:1d:64:6e:03:a8:f5:56:88:60:9c:1d:
        6d:f6:d5:f5:f1:a6:c0:7b:0a:b8:cc:e2:be:a9:22:69:66:3a:
        be:91:34:a3:37:c1:c5:ee:98:cb:ef:88:1d:eb:e2:f0:be:40:
        01:3b:cf:c7:10:cb:ee:da:09:99:9c:a7:68:4d:2f:34:b1:34:
        9b:34:4b:8b:26:3b:d6:58:ff:07:cd:dd:a1:e4:4c:7f:44:8c:
        5c:e6:8d:4d:9d:70:01:69:28:43:8a:67:f9:19:66:67:64:cd:
        4b:64:53:1b:6c:cb:79:a5:e1:73:af:4b:d5:77:9b:ed:13:9a:
        11:82:9f:77:e3:f4:d0:03:97:84:cb:5b:3e:48:06:c1:76:da:
        f2:28:d0:4a:18:b3:da:d9:72:6c:a3:e3:f3:1c:20:41:7a:c5:
        01:f5:91:e9:90:ef:81:d5:fe:7f:71:39:39:df:33:f6:47:c9:
        fc:e8:e0:f4:7b:db:10:70:ea:38:fa:b2:a8:e8:01:78:81:2f:
        38:f3:b1:2c
-----BEGIN CERTIFICATE-----
MIIFQzCCBCugAwIBAgIICsXG1kw5ykwwDQYJKoZIhvcNAQELBQAwgYYxCzAJBgNV
BAYTAlVTMRcwFQYDVQQIEw5Ob3J0aCBDYXJvbGluYTEVMBMGA1UEChMMbWV0ZXIu
bWQgbGxjMR4wHAYDVQQLExVtZXRlci5tZCBsbGMgU2VjdXJpdHkxJzAlBgNVBAMT
Hm1ldGVyLm1kIENlcnRpZmljYXRlIEF1dGhvcml0eTAeFw0xNjA4MTExNDAwMzRa
Fw0yNjA4MDkxNDAwMzRaMIGZMQswCQYDVQQGEwJVUzEXMBUGA1UECBMOTm9ydGgg
Q2Fyb2xpbmExFTATBgNVBAoTDG1ldGVyLm1kIGxsYzEeMBwGA1UECxMVbWV0ZXIu
bWQgbGxjIFNlY3VyaXR5MRgwFgYDVQQDEw9wb3N0Z3Jlcy1zZXJ2ZXIxIDAeBgkq
hkiG9w0BCQEWEXNlY3VyaXR5QG1ldGVyLm1kMIICIjANBgkqhkiG9w0BAQEFAAOC
Ag8AMIICCgKCAgEA5HkQaqRLORJ4ylJA/4A4WkssTr46TxT1nNMAWWtQhvvu/XP7
4dt6UKQC9AGxRmLiZ9w2EODRYJ0BcGREZAcHffiN9tokSZQvNCDuAfL63b6Qu3WZ
Z2AQCESjl9AFEMl9sQdgVwbMDg5axdrdW/UB73qt2OVf/q6PW2Bx03eJtXq9tzOb
o+AWu+7Apwa66rTVz5y5UxypPgfOyJpZx4pGisIq6Ngp0DKnHmBS0zaVle6AWaz1
NWU5kdVScsUoK7V9fipFsACSXJ/kSDPiS9d5mi4P23O78IM/maRI1WvWJ5ZOA/oL
MJUiZ/XOOg+enw/+vRMsB6m4MoeLf2LngPVYKrqhTdVpJl044juL0fBMBIvq1/Qf
7Qyd/hkZDOiHEIasxh0rvfRSX2rbqqt5UEnDv3mYa4Ks+6A7uAGapemSAx/LEJoo
T9ZSVXZlYtvflBN00Y4viH/TwVeLS5YtZANF1mJ/bq7pFRuscdVDaBcQSFR947vi
8l8J4nrVYs0qoN7WEhsxMWSXXpReSBlbZQQBpAcDnlY45x36ctYhg/Xtd6PjzoHk
08vJ8DuQpp4Q4azT1wZ4GtbxdhDz7i99SZDRMzFFe8XnVdXOw0keTVbrM5fgpwur
IEQgk3CM5Zs0SZFsRG32rzriE0uZrbbzzcf7ZW7kpocB0ymwFJcQMlOeQNMCAwEA
AaOBnzCBnDAJBgNVHRMEAjAAMB0GA1UdDgQWBBRMJGmp3zviF5+zUw70Ih6ARUiq
0TAfBgNVHSMEGDAWgBRFZZAIUGkV7StgnnZRhlGsHn0M+zAcBgNVHREEFTATgRFz
ZWN1cml0eUBtZXRlci5tZDAxBgNVHR8EKjAoMCagJKAihiBodHRwczovL3NlY3Vy
aXR5Lm1ldGVyLm1kL2NhLmNybDANBgkqhkiG9w0BAQsFAAOCAQEAaCnSI+9MQXLB
gbUaDx7tXQP/8RBOJK8RdKT9hd3gAW5H0Q5qrsLag3h42x0VhYHzmx+beShgfEPF
ozlbcx1kbgOo9VaIYJwdbfbV9fGmwHsKuMzivqkiaWY6vpE0ozfBxe6Yy++IHevi
8L5AATvPxxDL7toJmZynaE0vNLE0mzRLiyY71lj/B83doeRMf0SMXOaNTZ1wAWko
Q4pn+RlmZ2TNS2RTG2zLeaXhc69L1Xeb7ROaEYKfd+P00AOXhMtbPkgGwXba8ijQ
Shiz2tlybKPj8xwgQXrFAfWR6ZDvgdX+f3E5Od8z9kfJ/Ojg9HvbEHDqOPqyqOgB
eIEvOPOxLA==
-----END CERTIFICATE-----
