Certificate:
    Data:
        Version: 3 (0x2)
        Serial Number:
            0a:c5:c6:d6:4c:39:ca:4a
        Signature Algorithm: sha256WithRSAEncryption
        Issuer: C=US, ST=North Carolina, O=meter.md llc, OU=meter.md llc Security, CN=meter.md Certificate Authority
        Validity
            Not Before: Jul 25 19:33:41 2016 GMT
            Not After : Jul 23 19:33:41 2026 GMT
        Subject: C=US, ST=North Carolina, O=meter.md llc, OU=meter.md llc Security, CN=redis-client/emailAddress=security@meter.md
        Subject Public Key Info:
            Public Key Algorithm: rsaEncryption
            RSA Public Key: (4096 bit)
                Modulus (4096 bit):
                    00:c8:f8:4f:fc:d4:69:bd:d0:b1:67:20:d2:a9:44:
                    f0:90:49:2c:bc:2c:35:47:3a:23:7d:26:b8:0d:3f:
                    9f:db:8c:c5:5d:0d:29:b3:52:09:02:3e:a2:e6:32:
                    1a:ac:b7:6e:92:a6:77:e7:5e:bd:56:6b:6e:f5:c6:
                    53:54:d6:ef:19:e1:e9:fa:7e:e3:0c:00:68:d8:a9:
                    ab:8e:fd:22:53:ee:52:6f:f8:34:15:85:3d:70:a7:
                    43:02:51:29:b1:ec:3e:c4:2e:b7:00:bd:d4:7c:4e:
                    af:98:92:4b:16:74:d0:66:ec:25:bf:4b:9b:bf:f5:
                    0b:0f:ed:30:06:e8:be:d6:2a:70:a1:52:3f:ce:01:
                    c7:5e:82:9c:72:65:c3:0f:ee:22:5a:eb:2c:b9:37:
                    4e:88:cc:36:eb:87:7b:03:d3:27:c8:68:fa:35:f4:
                    44:54:3f:40:62:4b:e6:fe:1e:9d:3e:3f:f1:9f:5b:
                    99:db:51:49:6c:12:a1:d8:4f:1f:c2:1a:3b:5a:23:
                    81:4c:39:43:da:78:f9:91:8b:c2:3c:29:dd:a4:a2:
                    8d:0c:e7:98:2b:13:7c:6a:e3:ae:13:76:4f:d2:2c:
                    e2:8e:0d:f0:18:57:c8:d1:a6:47:18:1d:ec:ca:c7:
                    8a:a9:99:0e:ff:77:9f:d8:17:3c:60:10:3f:56:fc:
                    b6:82:ff:cb:b2:be:ba:62:b5:50:c7:e4:20:97:b4:
                    8c:81:de:3d:ab:45:24:a6:85:36:02:82:16:40:f1:
                    07:35:56:de:03:8e:ea:7e:bc:9b:b8:31:c9:5d:ad:
                    27:b3:09:ac:67:26:fb:45:05:53:d5:c0:9b:2d:dd:
                    76:42:20:9c:6f:77:d6:3c:bf:af:ad:f6:5c:a9:21:
                    75:9e:c3:dd:66:22:b9:80:9f:2e:d3:d4:e0:69:cc:
                    b8:e0:a1:32:1b:fd:d3:2c:a9:0e:c3:a7:0f:04:c0:
                    70:aa:28:6d:73:a9:65:60:50:db:cf:12:cc:a3:d1:
                    8c:ca:32:39:3f:5a:37:f2:87:c7:ad:47:9f:81:cd:
                    21:31:7b:1c:36:69:31:91:8d:bf:a4:ac:6e:62:97:
                    ea:e4:74:22:f6:c9:01:43:59:2c:92:d2:19:97:c2:
                    1d:ba:94:a4:41:6a:a2:06:d7:86:04:ab:02:3a:ed:
                    04:c4:4f:64:8e:f4:e5:dd:7f:39:01:71:5c:46:c2:
                    d8:d8:66:c8:85:db:0e:a7:a3:d7:f9:1d:5c:86:81:
                    33:dc:e8:d4:aa:da:7c:d0:7e:c3:cf:4c:09:cc:e7:
                    b9:9f:e5:87:bb:43:68:38:79:57:eb:cf:5e:e9:da:
                    0d:7d:ad:54:26:42:7b:87:87:ff:6b:b8:d0:a1:96:
                    b7:30:71
                Exponent: 65537 (0x10001)
        X509v3 extensions:
            X509v3 Basic Constraints: 
                CA:FALSE
            X509v3 Subject Key Identifier: 
                BD:E8:B7:45:CE:76:6F:E0:67:46:5B:5B:B0:D4:E5:BB:00:5C:C4:85
            X509v3 Authority Key Identifier: 
                keyid:45:65:90:08:50:69:15:ED:2B:60:9E:76:51:86:51:AC:1E:7D:0C:FB

            X509v3 Subject Alternative Name: 
                email:security@meter.md
            X509v3 CRL Distribution Points: 
                URI:https://security.meter.md/ca.crl

    Signature Algorithm: sha256WithRSAEncryption
        08:46:3f:89:24:c4:f2:5a:7d:48:3a:19:6d:01:18:8b:e3:6c:
        34:51:ec:fd:c6:7f:8f:a2:26:6f:06:ff:0c:2a:40:01:83:b5:
        a7:56:0a:11:e5:9f:c1:5c:d5:9b:3c:a0:29:06:da:c5:a3:ea:
        cb:d2:ad:58:e6:69:44:37:8c:65:b3:72:84:ba:fb:e7:3f:21:
        fe:3b:6f:da:c5:c5:7c:00:f5:76:b8:82:a0:7c:db:f0:b3:b4:
        8d:b3:90:c3:10:78:2f:12:d6:84:8a:4c:f7:4e:35:0f:61:63:
        6e:f3:20:f7:82:e7:5b:95:4f:0a:f2:bb:6f:36:72:02:11:93:
        42:54:88:3a:75:d7:fe:01:f6:84:d5:a1:15:d0:e6:6d:3c:86:
        75:8b:a2:5f:a1:19:49:a7:b6:f2:a8:ff:10:11:a6:5c:a4:c0:
        8c:fe:a7:88:85:16:b9:8c:d0:48:ed:2f:66:13:46:15:11:06:
        eb:c4:ae:d9:a1:de:05:47:4f:c4:fa:0f:ac:ac:87:62:20:ad:
        15:5a:ae:7e:4e:3b:4a:17:42:ed:98:62:d2:7e:0d:e2:ab:61:
        b9:50:d3:89:8c:be:8e:2c:ea:57:f4:a6:f0:25:16:5a:f6:7c:
        fb:36:09:c0:a3:b3:2a:51:10:85:5e:b4:3e:eb:7c:3e:ba:68:
        15:08:87:dc
-----BEGIN CERTIFICATE-----
MIIFQDCCBCigAwIBAgIICsXG1kw5ykowDQYJKoZIhvcNAQELBQAwgYYxCzAJBgNV
BAYTAlVTMRcwFQYDVQQIEw5Ob3J0aCBDYXJvbGluYTEVMBMGA1UEChMMbWV0ZXIu
bWQgbGxjMR4wHAYDVQQLExVtZXRlci5tZCBsbGMgU2VjdXJpdHkxJzAlBgNVBAMT
Hm1ldGVyLm1kIENlcnRpZmljYXRlIEF1dGhvcml0eTAeFw0xNjA3MjUxOTMzNDFa
Fw0yNjA3MjMxOTMzNDFaMIGWMQswCQYDVQQGEwJVUzEXMBUGA1UECBMOTm9ydGgg
Q2Fyb2xpbmExFTATBgNVBAoTDG1ldGVyLm1kIGxsYzEeMBwGA1UECxMVbWV0ZXIu
bWQgbGxjIFNlY3VyaXR5MRUwEwYDVQQDEwxyZWRpcy1jbGllbnQxIDAeBgkqhkiG
9w0BCQEWEXNlY3VyaXR5QG1ldGVyLm1kMIICIjANBgkqhkiG9w0BAQEFAAOCAg8A
MIICCgKCAgEAyPhP/NRpvdCxZyDSqUTwkEksvCw1RzojfSa4DT+f24zFXQ0ps1IJ
Aj6i5jIarLdukqZ35169Vmtu9cZTVNbvGeHp+n7jDABo2Kmrjv0iU+5Sb/g0FYU9
cKdDAlEpsew+xC63AL3UfE6vmJJLFnTQZuwlv0ubv/ULD+0wBui+1ipwoVI/zgHH
XoKccmXDD+4iWussuTdOiMw264d7A9MnyGj6NfREVD9AYkvm/h6dPj/xn1uZ21FJ
bBKh2E8fwho7WiOBTDlD2nj5kYvCPCndpKKNDOeYKxN8auOuE3ZP0izijg3wGFfI
0aZHGB3syseKqZkO/3ef2Bc8YBA/Vvy2gv/Lsr66YrVQx+Qgl7SMgd49q0UkpoU2
AoIWQPEHNVbeA47qfrybuDHJXa0nswmsZyb7RQVT1cCbLd12QiCcb3fWPL+vrfZc
qSF1nsPdZiK5gJ8u09Tgacy44KEyG/3TLKkOw6cPBMBwqihtc6llYFDbzxLMo9GM
yjI5P1o38ofHrUefgc0hMXscNmkxkY2/pKxuYpfq5HQi9skBQ1ksktIZl8IdupSk
QWqiBteGBKsCOu0ExE9kjvTl3X85AXFcRsLY2GbIhdsOp6PX+R1choEz3OjUqtp8
0H7Dz0wJzOe5n+WHu0NoOHlX689e6doNfa1UJkJ7h4f/a7jQoZa3MHECAwEAAaOB
nzCBnDAJBgNVHRMEAjAAMB0GA1UdDgQWBBS96LdFznZv4GdGW1uw1OW7AFzEhTAf
BgNVHSMEGDAWgBRFZZAIUGkV7StgnnZRhlGsHn0M+zAcBgNVHREEFTATgRFzZWN1
cml0eUBtZXRlci5tZDAxBgNVHR8EKjAoMCagJKAihiBodHRwczovL3NlY3VyaXR5
Lm1ldGVyLm1kL2NhLmNybDANBgkqhkiG9w0BAQsFAAOCAQEACEY/iSTE8lp9SDoZ
bQEYi+NsNFHs/cZ/j6Imbwb/DCpAAYO1p1YKEeWfwVzVmzygKQbaxaPqy9KtWOZp
RDeMZbNyhLr75z8h/jtv2sXFfAD1driCoHzb8LO0jbOQwxB4LxLWhIpM9041D2Fj
bvMg94LnW5VPCvK7bzZyAhGTQlSIOnXX/gH2hNWhFdDmbTyGdYuiX6EZSae28qj/
EBGmXKTAjP6niIUWuYzQSO0vZhNGFREG68Su2aHeBUdPxPoPrKyHYiCtFVqufk47
ShdC7Zhi0n4N4qthuVDTiYy+jizqV/Sm8CUWWvZ8+zYJwKOzKlEQhV60Put8Prpo
FQiH3A==
-----END CERTIFICATE-----
