Certificate:
    Data:
        Version: 3 (0x2)
        Serial Number:
            0a:c5:c6:d6:4c:39:ca:4b
        Signature Algorithm: sha256WithRSAEncryption
        Issuer: C=US, ST=North Carolina, O=meter.md llc, OU=meter.md llc Security, CN=meter.md Certificate Authority
        Validity
            Not Before: Aug 11 14:00:08 2016 GMT
            Not After : Aug  9 14:00:08 2026 GMT
        Subject: C=US, ST=North Carolina, O=meter.md llc, OU=meter.md llc Security, CN=postgres-client/emailAddress=security@meter.md
        Subject Public Key Info:
            Public Key Algorithm: rsaEncryption
            RSA Public Key: (4096 bit)
                Modulus (4096 bit):
                    00:ca:02:11:e2:37:81:95:3f:11:fc:b8:74:86:5a:
                    b5:9e:76:34:d6:fc:9b:02:4a:86:a7:b6:68:d7:19:
                    ff:16:d1:c1:b8:78:99:0b:21:9a:b4:20:96:64:c8:
                    9d:56:8c:a1:d3:e3:f2:36:20:97:69:43:84:fd:06:
                    c8:bd:ff:70:52:44:9e:5b:a2:52:99:b5:96:0d:13:
                    c5:32:d9:d5:db:51:4f:d3:1f:2d:b4:60:f7:90:89:
                    4d:f7:8a:a4:f0:e7:96:66:9a:7d:1a:14:02:a3:50:
                    75:c5:1b:49:65:b3:28:dd:4b:d4:eb:0a:1f:d8:44:
                    3d:e4:72:7e:5f:6f:99:09:06:4d:aa:33:42:dd:b8:
                    8c:f2:82:32:b8:69:46:6d:77:4c:e1:c5:b2:a2:13:
                    4e:16:7e:f7:fa:12:63:ce:2b:a3:4a:0e:4c:f8:80:
                    ef:ec:55:53:7b:5e:34:4f:12:88:06:6b:a1:54:b7:
                    e7:9c:28:72:63:34:9e:07:50:cc:45:25:90:f0:34:
                    a4:dc:e7:6f:78:9e:69:a9:99:f0:12:35:84:54:e6:
                    9b:98:4b:e2:51:ad:88:4a:64:49:72:2c:f4:53:45:
                    9c:88:25:10:f1:23:fa:81:e5:19:30:ce:3f:26:5a:
                    18:0f:21:ec:0b:c2:9b:36:28:91:0c:7a:4e:cc:77:
                    62:56:c6:bc:d7:76:1b:73:9a:cc:34:ec:6a:8f:f8:
                    49:01:a8:ba:db:5e:5e:c7:dd:99:c8:5a:b1:e4:19:
                    4e:03:a6:4b:4d:09:c7:9b:ea:a3:e9:07:64:90:ee:
                    5e:6b:5b:b8:ce:94:45:cc:00:e4:36:c5:bc:69:06:
                    72:36:07:08:4e:e5:6d:30:b1:f0:d9:30:ef:1d:f2:
                    77:e2:86:31:88:b7:f2:d6:a4:3d:51:5f:3e:fa:63:
                    3f:69:6b:88:7c:96:39:81:ae:cd:9f:b0:fd:80:b7:
                    ed:06:2e:d6:94:ae:e7:17:cf:01:14:34:e9:3d:ee:
                    cf:c5:6f:5e:9c:53:76:2c:ec:0f:84:f4:79:0e:5b:
                    fc:d1:b0:a9:ff:ba:b0:7f:aa:9d:aa:79:3d:97:a5:
                    91:b0:21:67:25:3c:ca:ed:bb:4e:bf:b0:78:1b:81:
                    46:aa:ba:e6:fd:4f:71:5f:ad:1c:87:5c:6b:cd:4b:
                    ae:07:bc:ea:97:5f:b0:e2:59:06:16:05:e1:c7:45:
                    90:d3:21:8c:10:d3:65:cd:24:c9:c7:7a:d5:a1:bb:
                    91:90:99:aa:76:35:25:3d:33:1c:3e:81:d1:a7:45:
                    f5:5c:82:e0:5b:9d:08:16:66:f2:31:80:e5:55:cb:
                    c0:5e:a9:2a:cb:8b:5e:98:ed:10:23:ef:52:d8:7b:
                    04:3c:3d
                Exponent: 65537 (0x10001)
        X509v3 extensions:
            X509v3 Basic Constraints: 
                CA:FALSE
            X509v3 Subject Key Identifier: 
                47:3E:15:01:DD:67:44:81:88:AE:74:51:A0:0F:30:8F:31:BD:CC:BC
            X509v3 Authority Key Identifier: 
                keyid:45:65:90:08:50:69:15:ED:2B:60:9E:76:51:86:51:AC:1E:7D:0C:FB

            X509v3 Subject Alternative Name: 
                email:security@meter.md
            X509v3 CRL Distribution Points: 
                URI:https://security.meter.md/ca.crl

    Signature Algorithm: sha256WithRSAEncryption
        6e:4f:48:ae:a5:57:45:d4:9d:a2:98:44:3d:0b:d2:2d:8d:e2:
        ad:49:8c:11:78:c2:eb:87:51:98:70:b9:40:29:a5:8b:a4:88:
        11:32:02:3d:2a:ea:9b:5f:6f:de:33:94:b0:4a:ad:1f:67:65:
        60:15:59:4d:8d:a1:54:25:0f:cd:43:a9:f1:ba:4c:7f:31:88:
        20:79:0f:83:78:85:78:93:55:0f:5f:6c:5b:a2:c0:9b:39:01:
        a7:84:d5:a3:35:39:73:26:0d:a3:f5:f1:06:03:a0:5c:9f:de:
        ac:69:20:eb:2a:80:cd:ed:fd:c1:aa:41:63:9e:f4:bb:8b:2b:
        95:58:fc:24:25:fd:bc:75:f9:76:62:7e:9f:31:7b:1f:0c:f3:
        d1:5c:b4:dc:f8:95:e8:4d:39:8a:d9:7b:ca:c0:76:36:e7:4e:
        10:ec:0a:d6:3c:b3:31:67:2e:a4:11:bc:aa:8a:8a:e8:2f:66:
        d9:37:f1:e7:fd:da:c6:a2:01:b0:14:98:41:7e:ba:99:51:26:
        e6:53:53:eb:eb:bc:08:de:78:07:92:40:31:d6:b8:a1:02:3e:
        cf:4f:1e:d5:aa:97:08:aa:98:7c:61:d1:b3:e0:25:45:0d:d0:
        e2:14:15:c0:7e:13:6d:68:92:b4:f3:33:00:04:db:62:27:b4:
        c8:ea:68:73
-----BEGIN CERTIFICATE-----
MIIFQzCCBCugAwIBAgIICsXG1kw5ykswDQYJKoZIhvcNAQELBQAwgYYxCzAJBgNV
BAYTAlVTMRcwFQYDVQQIEw5Ob3J0aCBDYXJvbGluYTEVMBMGA1UEChMMbWV0ZXIu
bWQgbGxjMR4wHAYDVQQLExVtZXRlci5tZCBsbGMgU2VjdXJpdHkxJzAlBgNVBAMT
Hm1ldGVyLm1kIENlcnRpZmljYXRlIEF1dGhvcml0eTAeFw0xNjA4MTExNDAwMDha
Fw0yNjA4MDkxNDAwMDhaMIGZMQswCQYDVQQGEwJVUzEXMBUGA1UECBMOTm9ydGgg
Q2Fyb2xpbmExFTATBgNVBAoTDG1ldGVyLm1kIGxsYzEeMBwGA1UECxMVbWV0ZXIu
bWQgbGxjIFNlY3VyaXR5MRgwFgYDVQQDEw9wb3N0Z3Jlcy1jbGllbnQxIDAeBgkq
hkiG9w0BCQEWEXNlY3VyaXR5QG1ldGVyLm1kMIICIjANBgkqhkiG9w0BAQEFAAOC
Ag8AMIICCgKCAgEAygIR4jeBlT8R/Lh0hlq1nnY01vybAkqGp7Zo1xn/FtHBuHiZ
CyGatCCWZMidVoyh0+PyNiCXaUOE/QbIvf9wUkSeW6JSmbWWDRPFMtnV21FP0x8t
tGD3kIlN94qk8OeWZpp9GhQCo1B1xRtJZbMo3UvU6wof2EQ95HJ+X2+ZCQZNqjNC
3biM8oIyuGlGbXdM4cWyohNOFn73+hJjziujSg5M+IDv7FVTe140TxKIBmuhVLfn
nChyYzSeB1DMRSWQ8DSk3OdveJ5pqZnwEjWEVOabmEviUa2ISmRJciz0U0WciCUQ
8SP6geUZMM4/JloYDyHsC8KbNiiRDHpOzHdiVsa813Ybc5rMNOxqj/hJAai6215e
x92ZyFqx5BlOA6ZLTQnHm+qj6QdkkO5ea1u4zpRFzADkNsW8aQZyNgcITuVtMLHw
2TDvHfJ34oYxiLfy1qQ9UV8++mM/aWuIfJY5ga7Nn7D9gLftBi7WlK7nF88BFDTp
Pe7PxW9enFN2LOwPhPR5Dlv80bCp/7qwf6qdqnk9l6WRsCFnJTzK7btOv7B4G4FG
qrrm/U9xX60ch1xrzUuuB7zql1+w4lkGFgXhx0WQ0yGMENNlzSTJx3rVobuRkJmq
djUlPTMcPoHRp0X1XILgW50IFmbyMYDlVcvAXqkqy4temO0QI+9S2HsEPD0CAwEA
AaOBnzCBnDAJBgNVHRMEAjAAMB0GA1UdDgQWBBRHPhUB3WdEgYiudFGgDzCPMb3M
vDAfBgNVHSMEGDAWgBRFZZAIUGkV7StgnnZRhlGsHn0M+zAcBgNVHREEFTATgRFz
ZWN1cml0eUBtZXRlci5tZDAxBgNVHR8EKjAoMCagJKAihiBodHRwczovL3NlY3Vy
aXR5Lm1ldGVyLm1kL2NhLmNybDANBgkqhkiG9w0BAQsFAAOCAQEAbk9IrqVXRdSd
ophEPQvSLY3irUmMEXjC64dRmHC5QCmli6SIETICPSrqm19v3jOUsEqtH2dlYBVZ
TY2hVCUPzUOp8bpMfzGIIHkPg3iFeJNVD19sW6LAmzkBp4TVozU5cyYNo/XxBgOg
XJ/erGkg6yqAze39wapBY570u4srlVj8JCX9vHX5dmJ+nzF7Hwzz0Vy03PiV6E05
itl7ysB2NudOEOwK1jyzMWcupBG8qoqK6C9m2Tfx5/3axqIBsBSYQX66mVEm5lNT
6+u8CN54B5JAMda4oQI+z08e1aqXCKqYfGHRs+AlRQ3Q4hQVwH4TbWiStPMzAATb
Yie0yOpocw==
-----END CERTIFICATE-----
